target datalayout = "e-m:e-p270:32:32-p271:32:32-p272:64:64-i64:64-i128:128-f80:128-n8:16:32:64-S128"
target triple = "x86_64-pc-linux-gnu"

%struct.Fraig_HashTableStruct_t_ = type { ptr, i32, i32 }
%struct.Fraig_ManStruct_t_ = type { ptr, ptr, ptr, ptr, ptr, ptr, ptr, ptr, ptr, i32, i32, i32, i32, i32, i32, i32, i32, i32, i32, i32, i32, i64, i32, i32, i32, i32, i32, ptr, ptr, ptr, ptr, ptr, i32, ptr, ptr, ptr, ptr, ptr, ptr, i32, ptr, ptr, ptr, ptr, i32, i32, i32, i32, i32, i32, i32, i32, i32, i32, i32, i32, i32, i32, i32, i32, i32, i32, i32, i64, i64, i64, i64, i64, i64, i64, i64, i64, i64, i64, i64 }
%struct.Fraig_NodeStruct_t_ = type { i32, i32, i32, i32, i32, i32, i32, ptr, ptr, ptr, ptr, ptr, ptr, ptr, ptr, i32, i32, ptr, ptr, ptr, ptr, ptr, ptr, ptr }
%struct.timespec = type { i64, i64 }

; Function Attrs: inlinehint nounwind uwtable
define internal i32 @Abc_PrimeCudd(i32 noundef %0) #4 {
  %2 = alloca i32, align 4
  %3 = alloca i32, align 4
  %4 = alloca i32, align 4
  store i32 %0, ptr %2, align 4, !tbaa !3
  call void @llvm.lifetime.start.p0(i64 4, ptr %3) #7
  call void @llvm.lifetime.start.p0(i64 4, ptr %4) #7
  %5 = load i32, ptr %2, align 4, !tbaa !3
  %6 = add i32 %5, -1
  store i32 %6, ptr %2, align 4, !tbaa !3
  br label %7

7:                                                ; preds = %32, %1
  %8 = load i32, ptr %2, align 4, !tbaa !3
  %9 = add i32 %8, 1
  store i32 %9, ptr %2, align 4, !tbaa !3
  %10 = load i32, ptr %2, align 4, !tbaa !3
  %11 = and i32 %10, 1
  %12 = icmp ne i32 %11, 0
  br i1 %12, label %13, label %30

13:                                               ; preds = %7
  store i32 1, ptr %4, align 4, !tbaa !3
  store i32 3, ptr %3, align 4, !tbaa !3
  br label %14

14:                                               ; preds = %26, %13
  %15 = load i32, ptr %3, align 4, !tbaa !3
  %16 = load i32, ptr %3, align 4, !tbaa !3
  %17 = mul nsw i32 %15, %16
  %18 = load i32, ptr %2, align 4, !tbaa !3
  %19 = icmp ule i32 %17, %18
  br i1 %19, label %20, label %29

20:                                               ; preds = %14
  %21 = load i32, ptr %2, align 4, !tbaa !3
  %22 = load i32, ptr %3, align 4, !tbaa !3
  %23 = urem i32 %21, %22
  %24 = icmp eq i32 %23, 0
  br i1 %24, label %25, label %26

25:                                               ; preds = %20
  store i32 0, ptr %4, align 4, !tbaa !3
  br label %29

26:                                               ; preds = %20
  %27 = load i32, ptr %3, align 4, !tbaa !3
  %28 = add nsw i32 %27, 2
  store i32 %28, ptr %3, align 4, !tbaa !3
  br label %14, !llvm.loop !14

29:                                               ; preds = %25, %14
  br label %31

30:                                               ; preds = %7
  store i32 0, ptr %4, align 4, !tbaa !3
  br label %31

31:                                               ; preds = %30, %29
  br label %32

32:                                               ; preds = %31
  %33 = load i32, ptr %4, align 4, !tbaa !3
  %34 = icmp ne i32 %33, 0
  %35 = xor i1 %34, true
  br i1 %35, label %7, label %36, !llvm.loop !16

36:                                               ; preds = %32
  %37 = load i32, ptr %2, align 4, !tbaa !3
  call void @llvm.lifetime.end.p0(i64 4, ptr %4) #7
  call void @llvm.lifetime.end.p0(i64 4, ptr %3) #7
  ret i32 %37
}

; Function Attrs: inlinehint nounwind uwtable
define internal i64 @Abc_Clock() #4 {
  %1 = alloca i64, align 8
  %2 = alloca %struct.timespec, align 8
  %3 = alloca i32, align 4
  %4 = alloca i64, align 8
  call void @llvm.lifetime.start.p0(i64 16, ptr %2) #7
  %5 = call i32 @clock_gettime(i32 noundef 1, ptr noundef %2) #7
  %6 = icmp slt i32 %5, 0
  br i1 %6, label %7, label %8

7:                                                ; preds = %0
  store i64 -1, ptr %1, align 8
  store i32 1, ptr %3, align 4
  br label %19

8:                                                ; preds = %0
  call void @llvm.lifetime.start.p0(i64 8, ptr %4) #7
  %9 = getelementptr inbounds nuw %struct.timespec, ptr %2, i32 0, i32 0
  %10 = load i64, ptr %9, align 8, !tbaa !81
  %11 = mul nsw i64 %10, 1000000
  store i64 %11, ptr %4, align 8, !tbaa !40
  %12 = getelementptr inbounds nuw %struct.timespec, ptr %2, i32 0, i32 1
  %13 = load i64, ptr %12, align 8, !tbaa !83
  %14 = mul nsw i64 %13, 1000000
  %15 = sdiv i64 %14, 1000000000
  %16 = load i64, ptr %4, align 8, !tbaa !40
  %17 = add nsw i64 %16, %15
  store i64 %17, ptr %4, align 8, !tbaa !40
  %18 = load i64, ptr %4, align 8, !tbaa !40
  store i64 %18, ptr %1, align 8
  store i32 1, ptr %3, align 4
  call void @llvm.lifetime.end.p0(i64 8, ptr %4) #7
  br label %19

19:                                               ; preds = %8, %7
  call void @llvm.lifetime.end.p0(i64 16, ptr %2) #7
  %20 = load i64, ptr %1, align 8
  ret i64 %20
}

; Function Attrs: nounwind uwtable
define internal void @Fraig_TableResizeS(ptr noundef %0) #0 {
  %2 = alloca ptr, align 8
  %3 = alloca ptr, align 8
  %4 = alloca ptr, align 8
  %5 = alloca ptr, align 8
  %6 = alloca i32, align 4
  %7 = alloca i32, align 4
  %8 = alloca i32, align 4
  %9 = alloca i64, align 8
  %10 = alloca i32, align 4
  store ptr %0, ptr %2, align 8, !tbaa !7
  call void @llvm.lifetime.start.p0(i64 8, ptr %3) #7
  call void @llvm.lifetime.start.p0(i64 8, ptr %4) #7
  call void @llvm.lifetime.start.p0(i64 8, ptr %5) #7
  call void @llvm.lifetime.start.p0(i64 4, ptr %6) #7
  call void @llvm.lifetime.start.p0(i64 4, ptr %7) #7
  call void @llvm.lifetime.start.p0(i64 4, ptr %8) #7
  call void @llvm.lifetime.start.p0(i64 8, ptr %9) #7
  call void @llvm.lifetime.start.p0(i64 4, ptr %10) #7
  %11 = call i64 @Abc_Clock()
  store i64 %11, ptr %9, align 8, !tbaa !40
  %12 = load ptr, ptr %2, align 8, !tbaa !7
  %13 = getelementptr inbounds nuw %struct.Fraig_HashTableStruct_t_, ptr %12, i32 0, i32 1
  %14 = load i32, ptr %13, align 8, !tbaa !10
  %15 = mul nsw i32 2, %14
  %16 = call i32 @Abc_PrimeCudd(i32 noundef %15)
  store i32 %16, ptr %6, align 4, !tbaa !3
  %17 = load i32, ptr %6, align 4, !tbaa !3
  %18 = sext i32 %17 to i64
  %19 = mul i64 8, %18
  %20 = call noalias ptr @malloc(i64 noundef %19) #8
  store ptr %20, ptr %3, align 8, !tbaa !21
  %21 = load ptr, ptr %3, align 8, !tbaa !21
  %22 = load i32, ptr %6, align 4, !tbaa !3
  %23 = sext i32 %22 to i64
  %24 = mul i64 8, %23
  call void @llvm.memset.p0.i64(ptr align 8 %21, i8 0, i64 %24, i1 false)
  store i32 0, ptr %7, align 4, !tbaa !3
  store i32 0, ptr %8, align 4, !tbaa !3
  br label %25

25:                                               ; preds = %92, %1
  %26 = load i32, ptr %8, align 4, !tbaa !3
  %27 = load ptr, ptr %2, align 8, !tbaa !7
  %28 = getelementptr inbounds nuw %struct.Fraig_HashTableStruct_t_, ptr %27, i32 0, i32 1
  %29 = load i32, ptr %28, align 8, !tbaa !10
  %30 = icmp slt i32 %26, %29
  br i1 %30, label %31, label %95

31:                                               ; preds = %25
  %32 = load ptr, ptr %2, align 8, !tbaa !7
  %33 = getelementptr inbounds nuw %struct.Fraig_HashTableStruct_t_, ptr %32, i32 0, i32 0
  %34 = load ptr, ptr %33, align 8, !tbaa !13
  %35 = load i32, ptr %8, align 4, !tbaa !3
  %36 = sext i32 %35 to i64
  %37 = getelementptr inbounds ptr, ptr %34, i64 %36
  %38 = load ptr, ptr %37, align 8, !tbaa !19
  store ptr %38, ptr %4, align 8, !tbaa !19
  %39 = load ptr, ptr %4, align 8, !tbaa !19
  %40 = icmp ne ptr %39, null
  br i1 %40, label %41, label %45

41:                                               ; preds = %31
  %42 = load ptr, ptr %4, align 8, !tbaa !19
  %43 = getelementptr inbounds nuw %struct.Fraig_NodeStruct_t_, ptr %42, i32 0, i32 10
  %44 = load ptr, ptr %43, align 8, !tbaa !37
  br label %46

45:                                               ; preds = %31
  br label %46

46:                                               ; preds = %45, %41
  %47 = phi ptr [ %44, %41 ], [ null, %45 ]
  store ptr %47, ptr %5, align 8, !tbaa !19
  br label %48

48:                                               ; preds = %89, %46
  %49 = load ptr, ptr %4, align 8, !tbaa !19
  %50 = icmp ne ptr %49, null
  br i1 %50, label %51, label %91

51:                                               ; preds = %48
  %52 = load ptr, ptr %4, align 8, !tbaa !19
  %53 = getelementptr inbounds nuw %struct.Fraig_NodeStruct_t_, ptr %52, i32 0, i32 7
  %54 = load ptr, ptr %53, align 8, !tbaa !35
  %55 = ptrtoint ptr %54 to i64
  %56 = load ptr, ptr %4, align 8, !tbaa !19
  %57 = getelementptr inbounds nuw %struct.Fraig_NodeStruct_t_, ptr %56, i32 0, i32 8
  %58 = load ptr, ptr %57, align 8, !tbaa !36
  %59 = ptrtoint ptr %58 to i64
  %60 = mul i64 %59, 12582917
  %61 = add i64 %55, %60
  %62 = load i32, ptr %6, align 4, !tbaa !3
  %63 = sext i32 %62 to i64
  %64 = urem i64 %61, %63
  %65 = trunc i64 %64 to i32
  store i32 %65, ptr %10, align 4, !tbaa !3
  %66 = load ptr, ptr %3, align 8, !tbaa !21
  %67 = load i32, ptr %10, align 4, !tbaa !3
  %68 = zext i32 %67 to i64
  %69 = getelementptr inbounds nuw ptr, ptr %66, i64 %68
  %70 = load ptr, ptr %69, align 8, !tbaa !19
  %71 = load ptr, ptr %4, align 8, !tbaa !19
  %72 = getelementptr inbounds nuw %struct.Fraig_NodeStruct_t_, ptr %71, i32 0, i32 10
  store ptr %70, ptr %72, align 8, !tbaa !37
  %73 = load ptr, ptr %4, align 8, !tbaa !19
  %74 = load ptr, ptr %3, align 8, !tbaa !21
  %75 = load i32, ptr %10, align 4, !tbaa !3
  %76 = zext i32 %75 to i64
  %77 = getelementptr inbounds nuw ptr, ptr %74, i64 %76
  store ptr %73, ptr %77, align 8, !tbaa !19
  %78 = load i32, ptr %7, align 4, !tbaa !3
  %79 = add nsw i32 %78, 1
  store i32 %79, ptr %7, align 4, !tbaa !3
  br label %80

80:                                               ; preds = %51
  %81 = load ptr, ptr %5, align 8, !tbaa !19
  store ptr %81, ptr %4, align 8, !tbaa !19
  %82 = load ptr, ptr %4, align 8, !tbaa !19
  %83 = icmp ne ptr %82, null
  br i1 %83, label %84, label %88

84:                                               ; preds = %80
  %85 = load ptr, ptr %4, align 8, !tbaa !19
  %86 = getelementptr inbounds nuw %struct.Fraig_NodeStruct_t_, ptr %85, i32 0, i32 10
  %87 = load ptr, ptr %86, align 8, !tbaa !37
  br label %89

88:                                               ; preds = %80
  br label %89

89:                                               ; preds = %88, %84
  %90 = phi ptr [ %87, %84 ], [ null, %88 ]
  store ptr %90, ptr %5, align 8, !tbaa !19
  br label %48, !llvm.loop !41

91:                                               ; preds = %48
  br label %92

92:                                               ; preds = %91
  %93 = load i32, ptr %8, align 4, !tbaa !3
  %94 = add nsw i32 %93, 1
  store i32 %94, ptr %8, align 4, !tbaa !3
  br label %25, !llvm.loop !42

95:                                               ; preds = %25
  %96 = load ptr, ptr %2, align 8, !tbaa !7
  %97 = getelementptr inbounds nuw %struct.Fraig_HashTableStruct_t_, ptr %96, i32 0, i32 0
  %98 = load ptr, ptr %97, align 8, !tbaa !13
  %99 = icmp ne ptr %98, null
  br i1 %99, label %100, label %106

100:                                              ; preds = %95
  %101 = load ptr, ptr %2, align 8, !tbaa !7
  %102 = getelementptr inbounds nuw %struct.Fraig_HashTableStruct_t_, ptr %101, i32 0, i32 0
  %103 = load ptr, ptr %102, align 8, !tbaa !13
  call void @free(ptr noundef %103) #7
  %104 = load ptr, ptr %2, align 8, !tbaa !7
  %105 = getelementptr inbounds nuw %struct.Fraig_HashTableStruct_t_, ptr %104, i32 0, i32 0
  store ptr null, ptr %105, align 8, !tbaa !13
  br label %107

106:                                              ; preds = %95
  br label %107

107:                                              ; preds = %106, %100
  %108 = load ptr, ptr %3, align 8, !tbaa !21
  %109 = load ptr, ptr %2, align 8, !tbaa !7
  %110 = getelementptr inbounds nuw %struct.Fraig_HashTableStruct_t_, ptr %109, i32 0, i32 0
  store ptr %108, ptr %110, align 8, !tbaa !13
  %111 = load i32, ptr %6, align 4, !tbaa !3
  %112 = load ptr, ptr %2, align 8, !tbaa !7
  %113 = getelementptr inbounds nuw %struct.Fraig_HashTableStruct_t_, ptr %112, i32 0, i32 1
  store i32 %111, ptr %113, align 8, !tbaa !10
  call void @llvm.lifetime.end.p0(i64 4, ptr %10) #7
  call void @llvm.lifetime.end.p0(i64 8, ptr %9) #7
  call void @llvm.lifetime.end.p0(i64 4, ptr %8) #7
  call void @llvm.lifetime.end.p0(i64 4, ptr %7) #7
  call void @llvm.lifetime.end.p0(i64 4, ptr %6) #7
  call void @llvm.lifetime.end.p0(i64 8, ptr %5) #7
  call void @llvm.lifetime.end.p0(i64 8, ptr %4) #7
  call void @llvm.lifetime.end.p0(i64 8, ptr %3) #7
  ret void
}

; Function Attrs: nounwind uwtable
define i32 @Fraig_HashTableLookupS(ptr noundef %0, ptr noundef %1, ptr noundef %2, ptr noundef %3) #0 {
  %5 = alloca i32, align 4
  %6 = alloca ptr, align 8
  %7 = alloca ptr, align 8
  %8 = alloca ptr, align 8
  %9 = alloca ptr, align 8
  %10 = alloca ptr, align 8
  %11 = alloca ptr, align 8
  %12 = alloca i32, align 4
  %13 = alloca i32, align 4
  store ptr %0, ptr %6, align 8, !tbaa !17
  store ptr %1, ptr %7, align 8, !tbaa !19
  store ptr %2, ptr %8, align 8, !tbaa !19
  store ptr %3, ptr %9, align 8, !tbaa !21
  call void @llvm.lifetime.start.p0(i64 8, ptr %10) #7
  %14 = load ptr, ptr %6, align 8, !tbaa !17
  %15 = getelementptr inbounds nuw %struct.Fraig_ManStruct_t_, ptr %14, i32 0, i32 6
  %16 = load ptr, ptr %15, align 8, !tbaa !22
  store ptr %16, ptr %10, align 8, !tbaa !7
  call void @llvm.lifetime.start.p0(i64 8, ptr %11) #7
  call void @llvm.lifetime.start.p0(i64 4, ptr %12) #7
  %17 = load ptr, ptr %7, align 8, !tbaa !19
  %18 = ptrtoint ptr %17 to i64
  %19 = and i64 %18, -2
  %20 = inttoptr i64 %19 to ptr
  %21 = getelementptr inbounds nuw %struct.Fraig_NodeStruct_t_, ptr %20, i32 0, i32 0
  %22 = load i32, ptr %21, align 8, !tbaa !33
  %23 = load ptr, ptr %8, align 8, !tbaa !19
  %24 = ptrtoint ptr %23 to i64
  %25 = and i64 %24, -2
  %26 = inttoptr i64 %25 to ptr
  %27 = getelementptr inbounds nuw %struct.Fraig_NodeStruct_t_, ptr %26, i32 0, i32 0
  %28 = load i32, ptr %27, align 8, !tbaa !33
  %29 = icmp sgt i32 %22, %28
  br i1 %29, label %30, label %34

30:                                               ; preds = %4
  %31 = load ptr, ptr %7, align 8, !tbaa !19
  store ptr %31, ptr %11, align 8, !tbaa !19
  %32 = load ptr, ptr %8, align 8, !tbaa !19
  store ptr %32, ptr %7, align 8, !tbaa !19
  %33 = load ptr, ptr %11, align 8, !tbaa !19
  store ptr %33, ptr %8, align 8, !tbaa !19
  br label %34

34:                                               ; preds = %30, %4
  %35 = load ptr, ptr %7, align 8, !tbaa !19
  %36 = ptrtoint ptr %35 to i64
  %37 = load ptr, ptr %8, align 8, !tbaa !19
  %38 = ptrtoint ptr %37 to i64
  %39 = mul i64 %38, 12582917
  %40 = add i64 %36, %39
  %41 = load ptr, ptr %10, align 8, !tbaa !7
  %42 = getelementptr inbounds nuw %struct.Fraig_HashTableStruct_t_, ptr %41, i32 0, i32 1
  %43 = load i32, ptr %42, align 8, !tbaa !10
  %44 = sext i32 %43 to i64
  %45 = urem i64 %40, %44
  %46 = trunc i64 %45 to i32
  store i32 %46, ptr %12, align 4, !tbaa !3
  %47 = load ptr, ptr %10, align 8, !tbaa !7
  %48 = getelementptr inbounds nuw %struct.Fraig_HashTableStruct_t_, ptr %47, i32 0, i32 0
  %49 = load ptr, ptr %48, align 8, !tbaa !13
  %50 = load i32, ptr %12, align 4, !tbaa !3
  %51 = zext i32 %50 to i64
  %52 = getelementptr inbounds nuw ptr, ptr %49, i64 %51
  %53 = load ptr, ptr %52, align 8, !tbaa !19
  store ptr %53, ptr %11, align 8, !tbaa !19
  br label %54

54:                                               ; preds = %73, %34
  %55 = load ptr, ptr %11, align 8, !tbaa !19
  %56 = icmp ne ptr %55, null
  br i1 %56, label %57, label %77

57:                                               ; preds = %54
  %58 = load ptr, ptr %11, align 8, !tbaa !19
  %59 = getelementptr inbounds nuw %struct.Fraig_NodeStruct_t_, ptr %58, i32 0, i32 7
  %60 = load ptr, ptr %59, align 8, !tbaa !35
  %61 = load ptr, ptr %7, align 8, !tbaa !19
  %62 = icmp eq ptr %60, %61
  br i1 %62, label %63, label %72

63:                                               ; preds = %57
  %64 = load ptr, ptr %11, align 8, !tbaa !19
  %65 = getelementptr inbounds nuw %struct.Fraig_NodeStruct_t_, ptr %64, i32 0, i32 8
  %66 = load ptr, ptr %65, align 8, !tbaa !36
  %67 = load ptr, ptr %8, align 8, !tbaa !19
  %68 = icmp eq ptr %66, %67
  br i1 %68, label %69, label %72

69:                                               ; preds = %63
  %70 = load ptr, ptr %11, align 8, !tbaa !19
  %71 = load ptr, ptr %9, align 8, !tbaa !21
  store ptr %70, ptr %71, align 8, !tbaa !19
  store i32 1, ptr %5, align 4
  store i32 1, ptr %13, align 4
  br label %127

72:                                               ; preds = %63, %57
  br label %73

73:                                               ; preds = %72
  %74 = load ptr, ptr %11, align 8, !tbaa !19
  %75 = getelementptr inbounds nuw %struct.Fraig_NodeStruct_t_, ptr %74, i32 0, i32 10
  %76 = load ptr, ptr %75, align 8, !tbaa !37
  store ptr %76, ptr %11, align 8, !tbaa !19
  br label %54, !llvm.loop !38

77:                                               ; preds = %54
  %78 = load ptr, ptr %10, align 8, !tbaa !7
  %79 = getelementptr inbounds nuw %struct.Fraig_HashTableStruct_t_, ptr %78, i32 0, i32 2
  %80 = load i32, ptr %79, align 4, !tbaa !39
  %81 = load ptr, ptr %10, align 8, !tbaa !7
  %82 = getelementptr inbounds nuw %struct.Fraig_HashTableStruct_t_, ptr %81, i32 0, i32 1
  %83 = load i32, ptr %82, align 8, !tbaa !10
  %84 = mul nsw i32 2, %83
  %85 = icmp sge i32 %80, %84
  br i1 %85, label %86, label %100

86:                                               ; preds = %77
  %87 = load ptr, ptr %10, align 8, !tbaa !7
  call void @Fraig_TableResizeS(ptr noundef %87)
  %88 = load ptr, ptr %7, align 8, !tbaa !19
  %89 = ptrtoint ptr %88 to i64
  %90 = load ptr, ptr %8, align 8, !tbaa !19
  %91 = ptrtoint ptr %90 to i64
  %92 = mul i64 %91, 12582917
  %93 = add i64 %89, %92
  %94 = load ptr, ptr %10, align 8, !tbaa !7
  %95 = getelementptr inbounds nuw %struct.Fraig_HashTableStruct_t_, ptr %94, i32 0, i32 1
  %96 = load i32, ptr %95, align 8, !tbaa !10
  %97 = sext i32 %96 to i64
  %98 = urem i64 %93, %97
  %99 = trunc i64 %98 to i32
  store i32 %99, ptr %12, align 4, !tbaa !3
  br label %100

100:                                              ; preds = %86, %77
  %101 = load ptr, ptr %6, align 8, !tbaa !17
  %102 = load ptr, ptr %7, align 8, !tbaa !19
  %103 = load ptr, ptr %8, align 8, !tbaa !19
  %104 = call ptr @Fraig_NodeCreate(ptr noundef %101, ptr noundef %102, ptr noundef %103)
  store ptr %104, ptr %11, align 8, !tbaa !19
  %105 = load ptr, ptr %10, align 8, !tbaa !7
  %106 = getelementptr inbounds nuw %struct.Fraig_HashTableStruct_t_, ptr %105, i32 0, i32 0
  %107 = load ptr, ptr %106, align 8, !tbaa !13
  %108 = load i32, ptr %12, align 4, !tbaa !3
  %109 = zext i32 %108 to i64
  %110 = getelementptr inbounds nuw ptr, ptr %107, i64 %109
  %111 = load ptr, ptr %110, align 8, !tbaa !19
  %112 = load ptr, ptr %11, align 8, !tbaa !19
  %113 = getelementptr inbounds nuw %struct.Fraig_NodeStruct_t_, ptr %112, i32 0, i32 10
  store ptr %111, ptr %113, align 8, !tbaa !37
  %114 = load ptr, ptr %11, align 8, !tbaa !19
  %115 = load ptr, ptr %10, align 8, !tbaa !7
  %116 = getelementptr inbounds nuw %struct.Fraig_HashTableStruct_t_, ptr %115, i32 0, i32 0
  %117 = load ptr, ptr %116, align 8, !tbaa !13
  %118 = load i32, ptr %12, align 4, !tbaa !3
  %119 = zext i32 %118 to i64
  %120 = getelementptr inbounds nuw ptr, ptr %117, i64 %119
  store ptr %114, ptr %120, align 8, !tbaa !19
  %121 = load ptr, ptr %11, align 8, !tbaa !19
  %122 = load ptr, ptr %9, align 8, !tbaa !21
  store ptr %121, ptr %122, align 8, !tbaa !19
  %123 = load ptr, ptr %10, align 8, !tbaa !7
  %124 = getelementptr inbounds nuw %struct.Fraig_HashTableStruct_t_, ptr %123, i32 0, i32 2
  %125 = load i32, ptr %124, align 4, !tbaa !39
  %126 = add nsw i32 %125, 1
  store i32 %126, ptr %124, align 4, !tbaa !39
  store i32 0, ptr %5, align 4
  store i32 1, ptr %13, align 4
  br label %127

127:                                              ; preds = %100, %69
  call void @llvm.lifetime.end.p0(i64 4, ptr %12) #7
  call void @llvm.lifetime.end.p0(i64 8, ptr %11) #7
  call void @llvm.lifetime.end.p0(i64 8, ptr %10) #7
  %128 = load i32, ptr %5, align 4
  ret i32 %128
}