; Function Attrs: nounwind uwtable
define range(i32 0, 2) i32 @Fraig_HashTableLookupS(ptr noundef %0, ptr noundef %1, ptr noundef %2, ptr noundef writeonly captures(none) %3) local_unnamed_addr #4 {
  %5 = alloca %struct.timespec, align 8
  %6 = getelementptr inbounds nuw i8, ptr %0, i64 48
  %7 = load ptr, ptr %6, align 8, !tbaa !14
  %8 = ptrtoint ptr %1 to i64
  %9 = and i64 %8, -2
  %10 = inttoptr i64 %9 to ptr
  %11 = load i32, ptr %10, align 8, !tbaa !27
  %12 = ptrtoint ptr %2 to i64
  %13 = and i64 %12, -2
  %14 = inttoptr i64 %13 to ptr
  %15 = load i32, ptr %14, align 8, !tbaa !27
  %16 = icmp sgt i32 %11, %15
  %spec.select = select i1 %16, ptr %1, ptr %2
  %spec.select42 = select i1 %16, ptr %2, ptr %1
  %17 = ptrtoint ptr %spec.select42 to i64
  %18 = ptrtoint ptr %spec.select to i64
  %19 = mul i64 %18, 12582917
  %20 = add i64 %19, %17
  %21 = getelementptr inbounds nuw i8, ptr %7, i64 8
  %22 = load i32, ptr %21, align 8, !tbaa !6
  %23 = sext i32 %22 to i64
  %24 = urem i64 %20, %23
  %25 = load ptr, ptr %7, align 8, !tbaa !13
  %26 = and i64 %24, 4294967295
  %27 = getelementptr inbounds nuw ptr, ptr %25, i64 %26
  %.03746 = load ptr, ptr %27, align 8, !tbaa !29
  %.not47 = icmp eq ptr %.03746, null
  br i1 %.not47, label %._crit_edge, label %.lr.ph

.lr.ph:                                           ; preds = %4, %36
  %.03748 = phi ptr [ %.037, %36 ], [ %.03746, %4 ]
  %28 = getelementptr inbounds nuw i8, ptr %.03748, i64 32
  %29 = load ptr, ptr %28, align 8, !tbaa !30
  %30 = icmp eq ptr %29, %spec.select42
  br i1 %30, label %31, label %36

31:                                               ; preds = %.lr.ph
  %32 = getelementptr inbounds nuw i8, ptr %.03748, i64 40
  %33 = load ptr, ptr %32, align 8, !tbaa !31
  %34 = icmp eq ptr %33, %spec.select
  br i1 %34, label %35, label %36

35:                                               ; preds = %31
  store ptr %.03748, ptr %3, align 8, !tbaa !29
  br label %83

36:                                               ; preds = %.lr.ph, %31
  %37 = getelementptr inbounds nuw i8, ptr %.03748, i64 56
  %.037 = load ptr, ptr %37, align 8, !tbaa !29
  %.not = icmp eq ptr %.037, null
  br i1 %.not, label %._crit_edge, label %.lr.ph, !llvm.loop !32

._crit_edge:                                      ; preds = %36, %4
  %38 = getelementptr inbounds nuw i8, ptr %7, i64 12
  %39 = load i32, ptr %38, align 4, !tbaa !33
  %40 = shl nsw i32 %22, 1
  %.not41 = icmp slt i32 %39, %40
  br i1 %.not41, label %75, label %41

41:                                               ; preds = %._crit_edge
  call void @llvm.lifetime.start.p0(i64 16, ptr nonnull %5) #14
  %42 = call i32 @clock_gettime(i32 noundef 1, ptr noundef nonnull %5) #14
  call void @llvm.lifetime.end.p0(i64 16, ptr nonnull %5) #14
  %43 = load i32, ptr %21, align 8, !tbaa !6
  %44 = shl nsw i32 %43, 1
  %45 = add i32 %44, -1
  br label %.loopexit.i.i

.loopexit.i.i:                                    ; preds = %.loopexit.i.i.backedge, %41
  %.012.i.i = phi i32 [ %45, %41 ], [ %46, %.loopexit.i.i.backedge ]
  %46 = add i32 %.012.i.i, 1
  %47 = and i32 %.012.i.i, 1
  %.not.not.i.i = icmp eq i32 %47, 0
  br i1 %.not.not.i.i, label %.preheader.i.i, label %.loopexit.i.i.backedge

.loopexit.i.i.backedge:                           ; preds = %.lr.ph.i.i, %.loopexit.i.i
  br label %.loopexit.i.i, !llvm.loop !3

.preheader.i.i:                                   ; preds = %.loopexit.i.i
  %.not15.i.i = icmp ult i32 %46, 9
  br i1 %.not15.i.i, label %Abc_PrimeCudd.exit.i, label %.lr.ph.i.i

48:                                               ; preds = %.lr.ph.i.i
  %49 = add nuw nsw i32 %.01116.i.i, 2
  %50 = mul nuw nsw i32 %49, %49
  %.not.i.i = icmp ugt i32 %50, %46
  br i1 %.not.i.i, label %Abc_PrimeCudd.exit.i, label %.lr.ph.i.i, !llvm.loop !5

.lr.ph.i.i:                                       ; preds = %.preheader.i.i, %48
  %.01116.i.i = phi i32 [ %49, %48 ], [ 3, %.preheader.i.i ]
  %51 = urem i32 %46, %.01116.i.i
  %52 = icmp eq i32 %51, 0
  br i1 %52, label %.loopexit.i.i.backedge, label %48, !llvm.loop !3

Abc_PrimeCudd.exit.i:                             ; preds = %.preheader.i.i, %48
  %53 = sext i32 %46 to i64
  %54 = shl nsw i64 %53, 3
  %calloc.i = call ptr @calloc(i64 1, i64 %54)
  %55 = icmp sgt i32 %43, 0
  %.pre.i = load ptr, ptr %7, align 8, !tbaa !13
  br i1 %55, label %.lr.ph47.i, label %._crit_edge48.i

.lr.ph47.i:                                       ; preds = %Abc_PrimeCudd.exit.i
  %wide.trip.count.i = zext nneg i32 %43 to i64
  br label %56

56:                                               ; preds = %._crit_edge.i, %.lr.ph47.i
  %indvars.iv.i = phi i64 [ 0, %.lr.ph47.i ], [ %indvars.iv.next.i, %._crit_edge.i ]
  %57 = getelementptr inbounds nuw ptr, ptr %.pre.i, i64 %indvars.iv.i
  %58 = load ptr, ptr %57, align 8, !tbaa !29
  %.not36.i = icmp eq ptr %58, null
  br i1 %.not36.i, label %._crit_edge.i, label %.lr.ph.i

.lr.ph.i:                                         ; preds = %56, %.lr.ph.i
  %.sink56.i = phi ptr [ %60, %.lr.ph.i ], [ %58, %56 ]
  %59 = getelementptr inbounds nuw i8, ptr %.sink56.i, i64 56
  %60 = load ptr, ptr %59, align 8, !tbaa !34
  %61 = getelementptr inbounds nuw i8, ptr %.sink56.i, i64 32
  %62 = load ptr, ptr %61, align 8, !tbaa !30
  %63 = ptrtoint ptr %62 to i64
  %64 = getelementptr inbounds nuw i8, ptr %.sink56.i, i64 40
  %65 = load ptr, ptr %64, align 8, !tbaa !31
  %66 = ptrtoint ptr %65 to i64
  %67 = mul i64 %66, 12582917
  %68 = add i64 %67, %63
  %69 = urem i64 %68, %53
  %70 = and i64 %69, 4294967295
  %71 = getelementptr inbounds nuw ptr, ptr %calloc.i, i64 %70
  %72 = load ptr, ptr %71, align 8, !tbaa !29
  store ptr %72, ptr %59, align 8, !tbaa !34
  store ptr %.sink56.i, ptr %71, align 8, !tbaa !29
  %.not38.i = icmp eq ptr %60, null
  br i1 %.not38.i, label %._crit_edge.i, label %.lr.ph.i, !llvm.loop !35

._crit_edge.i:                                    ; preds = %.lr.ph.i, %56
  %indvars.iv.next.i = add nuw nsw i64 %indvars.iv.i, 1
  %exitcond.not.i = icmp eq i64 %indvars.iv.next.i, %wide.trip.count.i
  br i1 %exitcond.not.i, label %._crit_edge48.i, label %56, !llvm.loop !36

._crit_edge48.i:                                  ; preds = %._crit_edge.i, %Abc_PrimeCudd.exit.i
  %.not.i = icmp eq ptr %.pre.i, null
  br i1 %.not.i, label %Fraig_TableResizeS.exit, label %73

73:                                               ; preds = %._crit_edge48.i
  call void @free(ptr noundef nonnull %.pre.i) #14
  br label %Fraig_TableResizeS.exit

Fraig_TableResizeS.exit:                          ; preds = %._crit_edge48.i, %73
  store ptr %calloc.i, ptr %7, align 8, !tbaa !13
  store i32 %46, ptr %21, align 8, !tbaa !6
  %74 = urem i64 %20, %53
  %.pre = and i64 %74, 4294967295
  br label %75

75:                                               ; preds = %Fraig_TableResizeS.exit, %._crit_edge
  %.pre-phi = phi i64 [ %.pre, %Fraig_TableResizeS.exit ], [ %26, %._crit_edge ]
  %76 = call ptr @Fraig_NodeCreate(ptr noundef %0, ptr noundef %spec.select42, ptr noundef %spec.select) #14
  %77 = load ptr, ptr %7, align 8, !tbaa !13
  %78 = getelementptr inbounds nuw ptr, ptr %77, i64 %.pre-phi
  %79 = load ptr, ptr %78, align 8, !tbaa !29
  %80 = getelementptr inbounds nuw i8, ptr %76, i64 56
  store ptr %79, ptr %80, align 8, !tbaa !34
  store ptr %76, ptr %78, align 8, !tbaa !29
  store ptr %76, ptr %3, align 8, !tbaa !29
  %81 = load i32, ptr %38, align 4, !tbaa !33
  %82 = add nsw i32 %81, 1
  store i32 %82, ptr %38, align 4, !tbaa !33
  br label %83

83:                                               ; preds = %75, %35
  %.038 = phi i32 [ 1, %35 ], [ 0, %75 ]
  ret i32 %.038
}